; Function Attrs: nounwind uwtable
define dso_local void @list_objects_filter_die_if_populated(ptr noundef readonly captures(none) %0) local_unnamed_addr #0 {
  %2 = getelementptr inbounds nuw i8, ptr %0, i64 24
  %3 = load i32, ptr %2, align 8, !tbaa !4
  %.not = icmp eq i32 %3, 0
  br i1 %.not, label %6, label %4

4:                                                ; preds = %1
  %5 = tail call fastcc ptr @_(ptr noundef nonnull @.str.19)
  tail call void (ptr, ...) @die(ptr noundef %5) #14
  unreachable

6:                                                ; preds = %1
  ret void
}